Certificate:
    Data:
        Version: 3 (0x2)
        Serial Number: 14 (0xe)
    Signature Algorithm: sha256WithRSAEncryption
        Issuer: C=GB, ST=Surrey, L=Purley, O=Alan Chandler, CN=Alan Chandler Certiciate Authority/emailAddress=alan@chandlerfamily.org.uk
        Validity
            Not Before: May 16 07:47:27 2017 GMT
            Not After : May 16 07:47:27 2018 GMT
        Subject: C=GB, ST=London, O=chandlerfamily.org.uk, CN=maxtest.dev
        Subject Public Key Info:
            Public Key Algorithm: rsaEncryption
                Public-Key: (2048 bit)
                Modulus:
                    00:b9:53:e5:9d:ab:d7:be:c5:8d:9f:54:fa:c8:7b:
                    fe:af:95:ea:5b:91:e5:98:96:02:6d:43:02:30:62:
                    46:b7:72:f1:f2:2d:b7:de:a6:4e:29:e1:00:81:67:
                    18:2f:d9:54:54:50:81:33:74:db:22:85:89:30:5a:
                    f7:f2:25:64:15:09:d8:48:f7:24:36:b6:7a:f0:5b:
                    fb:77:64:8b:0d:71:c2:3c:2b:07:ed:4e:78:3d:d9:
                    d3:c7:d1:6c:db:cc:c7:1a:4c:61:23:18:04:02:70:
                    c2:43:c6:22:b5:ca:61:89:8d:80:72:f7:e4:f3:c0:
                    65:da:31:92:a6:df:c4:19:ee:ca:35:99:2c:b8:bd:
                    10:af:e1:57:d5:56:d6:a8:4c:c6:b4:9e:21:32:b1:
                    f9:e3:b7:c8:1b:15:33:08:b2:08:63:13:c1:89:06:
                    65:fc:4e:cb:dd:50:eb:d8:88:78:2c:77:3e:23:e8:
                    f9:a4:cf:89:db:3a:1b:99:4d:5c:a7:9a:69:8c:4b:
                    64:14:80:f4:4a:3b:dc:cb:14:f0:2f:87:df:f4:1b:
                    0d:30:de:6b:e3:c9:9d:bc:7e:de:32:16:ee:89:a2:
                    a4:c8:be:5d:83:f4:3a:01:e3:79:6d:5e:40:59:01:
                    e4:23:5b:35:3e:b4:24:48:94:ba:bf:76:05:98:cf:
                    7f:37
                Exponent: 65537 (0x10001)
        X509v3 extensions:
            X509v3 Basic Constraints: 
                CA:FALSE
            X509v3 Subject Key Identifier: 
                A4:F2:D2:1F:70:7E:92:CD:A5:5F:7B:D9:C2:6C:7B:4A:AE:42:8A:F0
            X509v3 Authority Key Identifier: 
                keyid:0D:61:49:EA:AA:20:0C:F5:F2:F4:26:72:96:47:61:7B:F6:7C:A4:81

            Netscape CA Revocation Url: 
                https://www.chandlerfamily.org.uk/ca/akc-crl.pem
            X509v3 Key Usage: 
                Digital Signature, Non Repudiation, Key Encipherment
            X509v3 Subject Alternative Name: 
                DNS:maxtest.dev, DNS:maxtest.local
    Signature Algorithm: sha256WithRSAEncryption
         4b:6b:21:ad:cd:80:bc:58:81:f4:d9:5f:2e:25:f6:16:1f:ee:
         55:97:1a:73:94:ac:07:d1:ba:ae:5c:63:c4:c7:a7:e5:1d:12:
         c1:f9:54:42:a5:5d:ec:7a:30:0c:00:3a:ff:a1:d0:13:00:43:
         2d:e4:50:ed:0c:b6:77:a3:4a:38:4e:ea:50:b5:82:44:5f:11:
         72:01:ee:e1:8f:cb:d1:93:db:2a:a0:50:9a:c0:17:a8:f2:84:
         22:44:84:57:41:3b:17:6b:d4:39:60:d0:79:7f:b9:dc:a5:46:
         a5:14:06:6e:72:0e:ad:6b:ba:00:9b:09:c7:18:10:14:56:99:
         dc:83:e1:aa:66:1f:06:b6:4b:f0:e7:e7:4f:6a:ed:86:8e:35:
         06:ac:4e:00:3a:bb:be:b9:68:bc:16:a2:75:10:93:7c:96:7a:
         ec:66:81:2d:9d:40:d9:b7:23:b9:77:78:06:41:b7:0a:62:b0:
         0c:99:0f:d6:16:54:c2:2b:4f:6b:71:a5:ea:45:41:1a:a5:64:
         a5:9f:3e:63:28:05:3a:0e:08:e2:52:89:14:10:73:14:02:e9:
         76:0b:4f:af:c3:33:fb:fd:5e:54:fa:f8:9d:8d:1e:0f:0c:75:
         9b:46:99:6d:f3:c3:05:3b:2c:79:d6:31:86:bd:a2:1d:48:c9:
         b1:30:85:b9
-----BEGIN CERTIFICATE-----
MIIEMzCCAxugAwIBAgIBDjANBgkqhkiG9w0BAQsFADCBnzELMAkGA1UEBhMCR0Ix
DzANBgNVBAgMBlN1cnJleTEPMA0GA1UEBwwGUHVybGV5MRYwFAYDVQQKDA1BbGFu
IENoYW5kbGVyMSswKQYDVQQDDCJBbGFuIENoYW5kbGVyIENlcnRpY2lhdGUgQXV0
aG9yaXR5MSkwJwYJKoZIhvcNAQkBFhphbGFuQGNoYW5kbGVyZmFtaWx5Lm9yZy51
azAeFw0xNzA1MTYwNzQ3MjdaFw0xODA1MTYwNzQ3MjdaMFQxCzAJBgNVBAYTAkdC
MQ8wDQYDVQQIEwZMb25kb24xHjAcBgNVBAoTFWNoYW5kbGVyZmFtaWx5Lm9yZy51
azEUMBIGA1UEAxMLbWF4dGVzdC5kZXYwggEiMA0GCSqGSIb3DQEBAQUAA4IBDwAw
ggEKAoIBAQC5U+Wdq9e+xY2fVPrIe/6vlepbkeWYlgJtQwIwYka3cvHyLbfepk4p
4QCBZxgv2VRUUIEzdNsihYkwWvfyJWQVCdhI9yQ2tnrwW/t3ZIsNccI8KwftTng9
2dPH0WzbzMcaTGEjGAQCcMJDxiK1ymGJjYBy9+TzwGXaMZKm38QZ7so1mSy4vRCv
4VfVVtaoTMa0niEysfnjt8gbFTMIsghjE8GJBmX8TsvdUOvYiHgsdz4j6Pmkz4nb
OhuZTVynmmmMS2QUgPRKO9zLFPAvh9/0Gw0w3mvjyZ28ft4yFu6JoqTIvl2D9DoB
43ltXkBZAeQjWzU+tCRIlLq/dgWYz383AgMBAAGjgcMwgcAwCQYDVR0TBAIwADAd
BgNVHQ4EFgQUpPLSH3B+ks2lX3vZwmx7Sq5CivAwHwYDVR0jBBgwFoAUDWFJ6qog
DPXy9CZylkdhe/Z8pIEwPwYJYIZIAYb4QgEEBDIWMGh0dHBzOi8vd3d3LmNoYW5k
bGVyZmFtaWx5Lm9yZy51ay9jYS9ha2MtY3JsLnBlbTALBgNVHQ8EBAMCBeAwJQYD
VR0RBB4wHIILbWF4dGVzdC5kZXaCDW1heHRlc3QubG9jYWwwDQYJKoZIhvcNAQEL
BQADggEBAEtrIa3NgLxYgfTZXy4l9hYf7lWXGnOUrAfRuq5cY8THp+UdEsH5VEKl
Xex6MAwAOv+h0BMAQy3kUO0MtnejSjhO6lC1gkRfEXIB7uGPy9GT2yqgUJrAF6jy
hCJEhFdBOxdr1Dlg0Hl/udylRqUUBm5yDq1rugCbCccYEBRWmdyD4apmHwa2S/Dn
509q7YaONQasTgA6u765aLwWonUQk3yWeuxmgS2dQNm3I7l3eAZBtwpisAyZD9YW
VMIrT2txpepFQRqlZKWfPmMoBToOCOJSiRQQcxQC6XYLT6/DM/v9XlT6+J2NHg8M
dZtGmW3zwwU7LHnWMYa9oh1IybEwhbk=
-----END CERTIFICATE-----
